target datalayout = "e-m:e-p270:32:32-p271:32:32-p272:64:64-i64:64-i128:128-f80:128-n8:16:32:64-S128"
target triple = "x86_64-pc-linux-gnu"

%struct.DdManager = type { %struct.DdNode, ptr, ptr, ptr, ptr, ptr, ptr, ptr, i32, i32, double, double, double, i32, i32, i32, i32, i32, i32, ptr, ptr, %struct.DdSubtable, i32, i32, i32, i32, i32, i32, i32, double, i32, i32, i32, ptr, i64, double, i32, ptr, ptr, ptr, ptr, ptr, ptr, ptr, i32, ptr, ptr, ptr, ptr, ptr, ptr, i32, i32, i32, double, i32, i32, i32, i32, double, double, i32, i32, i32, i32, i32, i32, i32, i32, i32, ptr, ptr, i32, i32, i32, i32, i32, i32, ptr, ptr, ptr, ptr, ptr, ptr, ptr, ptr, i32, i64, i64, i64, i32, i64, i64, double, double, double, double, double, double, i32, ptr, ptr, i64 }
%struct.DdNode = type { i32, i32, ptr, %union.anon, i64 }
%union.anon = type { %struct.DdChildren }
%struct.DdChildren = type { ptr, ptr }
%struct.DdSubtable = type { ptr, i32, i32, i32, i32, i32, i32, i32, i32, i32, i32, i32 }

; Function Attrs: nounwind uwtable
define ptr @Cudd_bddAdjPermuteX(ptr noundef %0, ptr noundef %1, ptr noundef %2, i32 noundef %3) #0 {
  %5 = alloca ptr, align 8
  %6 = alloca ptr, align 8
  %7 = alloca ptr, align 8
  %8 = alloca ptr, align 8
  %9 = alloca i32, align 4
  %10 = alloca ptr, align 8
  %11 = alloca i32, align 4
  %12 = alloca i32, align 4
  %13 = alloca i32, align 4
  %14 = alloca ptr, align 8
  %15 = alloca i32, align 4
  store ptr %0, ptr %6, align 8, !tbaa !3
  store ptr %1, ptr %7, align 8, !tbaa !8
  store ptr %2, ptr %8, align 8, !tbaa !44
  store i32 %3, ptr %9, align 4, !tbaa !10
  call void @llvm.lifetime.start.p0(i64 8, ptr %10) #6
  call void @llvm.lifetime.start.p0(i64 4, ptr %11) #6
  call void @llvm.lifetime.start.p0(i64 4, ptr %12) #6
  call void @llvm.lifetime.start.p0(i64 4, ptr %13) #6
  call void @llvm.lifetime.start.p0(i64 8, ptr %14) #6
  %16 = load ptr, ptr %6, align 8, !tbaa !3
  %17 = getelementptr inbounds nuw %struct.DdManager, ptr %16, i32 0, i32 15
  %18 = load i32, ptr %17, align 8, !tbaa !12
  %19 = sext i32 %18 to i64
  %20 = mul i64 4, %19
  %21 = call noalias ptr @malloc(i64 noundef %20) #7
  store ptr %21, ptr %14, align 8, !tbaa !37
  %22 = load ptr, ptr %14, align 8, !tbaa !37
  %23 = icmp eq ptr %22, null
  br i1 %23, label %24, label %27

24:                                               ; preds = %4
  %25 = load ptr, ptr %6, align 8, !tbaa !3
  %26 = getelementptr inbounds nuw %struct.DdManager, ptr %25, i32 0, i32 86
  store i32 1, ptr %26, align 8, !tbaa !45
  store ptr null, ptr %5, align 8
  store i32 1, ptr %15, align 4
  br label %90

27:                                               ; preds = %4
  store i32 0, ptr %11, align 4, !tbaa !10
  br label %28

28:                                               ; preds = %40, %27
  %29 = load i32, ptr %11, align 4, !tbaa !10
  %30 = load ptr, ptr %6, align 8, !tbaa !3
  %31 = getelementptr inbounds nuw %struct.DdManager, ptr %30, i32 0, i32 15
  %32 = load i32, ptr %31, align 8, !tbaa !12
  %33 = icmp slt i32 %29, %32
  br i1 %33, label %34, label %43

34:                                               ; preds = %28
  %35 = load i32, ptr %11, align 4, !tbaa !10
  %36 = load ptr, ptr %14, align 8, !tbaa !37
  %37 = load i32, ptr %11, align 4, !tbaa !10
  %38 = sext i32 %37 to i64
  %39 = getelementptr inbounds i32, ptr %36, i64 %38
  store i32 %35, ptr %39, align 4, !tbaa !10
  br label %40

40:                                               ; preds = %34
  %41 = load i32, ptr %11, align 4, !tbaa !10
  %42 = add nsw i32 %41, 1
  store i32 %42, ptr %11, align 4, !tbaa !10
  br label %28, !llvm.loop !58

43:                                               ; preds = %28
  store i32 0, ptr %11, align 4, !tbaa !10
  br label %44

44:                                               ; preds = %75, %43
  %45 = load i32, ptr %11, align 4, !tbaa !10
  %46 = load i32, ptr %9, align 4, !tbaa !10
  %47 = sub nsw i32 %46, 2
  %48 = icmp slt i32 %45, %47
  br i1 %48, label %49, label %78

49:                                               ; preds = %44
  %50 = load ptr, ptr %8, align 8, !tbaa !44
  %51 = load i32, ptr %11, align 4, !tbaa !10
  %52 = sext i32 %51 to i64
  %53 = getelementptr inbounds ptr, ptr %50, i64 %52
  %54 = load ptr, ptr %53, align 8, !tbaa !8
  %55 = getelementptr inbounds nuw %struct.DdNode, ptr %54, i32 0, i32 0
  %56 = load i32, ptr %55, align 8, !tbaa !33
  store i32 %56, ptr %12, align 4, !tbaa !10
  %57 = load ptr, ptr %8, align 8, !tbaa !44
  %58 = load i32, ptr %11, align 4, !tbaa !10
  %59 = add nsw i32 %58, 1
  %60 = sext i32 %59 to i64
  %61 = getelementptr inbounds ptr, ptr %57, i64 %60
  %62 = load ptr, ptr %61, align 8, !tbaa !8
  %63 = getelementptr inbounds nuw %struct.DdNode, ptr %62, i32 0, i32 0
  %64 = load i32, ptr %63, align 8, !tbaa !33
  store i32 %64, ptr %13, align 4, !tbaa !10
  %65 = load i32, ptr %13, align 4, !tbaa !10
  %66 = load ptr, ptr %14, align 8, !tbaa !37
  %67 = load i32, ptr %12, align 4, !tbaa !10
  %68 = sext i32 %67 to i64
  %69 = getelementptr inbounds i32, ptr %66, i64 %68
  store i32 %65, ptr %69, align 4, !tbaa !10
  %70 = load i32, ptr %12, align 4, !tbaa !10
  %71 = load ptr, ptr %14, align 8, !tbaa !37
  %72 = load i32, ptr %13, align 4, !tbaa !10
  %73 = sext i32 %72 to i64
  %74 = getelementptr inbounds i32, ptr %71, i64 %73
  store i32 %70, ptr %74, align 4, !tbaa !10
  br label %75

75:                                               ; preds = %49
  %76 = load i32, ptr %11, align 4, !tbaa !10
  %77 = add nsw i32 %76, 3
  store i32 %77, ptr %11, align 4, !tbaa !10
  br label %44, !llvm.loop !59

78:                                               ; preds = %44
  %79 = load ptr, ptr %6, align 8, !tbaa !3
  %80 = load ptr, ptr %7, align 8, !tbaa !8
  %81 = load ptr, ptr %14, align 8, !tbaa !37
  %82 = call ptr @Cudd_bddPermute(ptr noundef %79, ptr noundef %80, ptr noundef %81)
  store ptr %82, ptr %10, align 8, !tbaa !8
  %83 = load ptr, ptr %14, align 8, !tbaa !37
  %84 = icmp ne ptr %83, null
  br i1 %84, label %85, label %87

85:                                               ; preds = %78
  %86 = load ptr, ptr %14, align 8, !tbaa !37
  call void @free(ptr noundef %86) #6
  store ptr null, ptr %14, align 8, !tbaa !37
  br label %88

87:                                               ; preds = %78
  br label %88

88:                                               ; preds = %87, %85
  %89 = load ptr, ptr %10, align 8, !tbaa !8
  store ptr %89, ptr %5, align 8
  store i32 1, ptr %15, align 4
  br label %90

90:                                               ; preds = %88, %24
  call void @llvm.lifetime.end.p0(i64 8, ptr %14) #6
  call void @llvm.lifetime.end.p0(i64 4, ptr %13) #6
  call void @llvm.lifetime.end.p0(i64 4, ptr %12) #6
  call void @llvm.lifetime.end.p0(i64 4, ptr %11) #6
  call void @llvm.lifetime.end.p0(i64 8, ptr %10) #6
  %91 = load ptr, ptr %5, align 8
  ret ptr %91
}