; Function Attrs: nounwind uwtable
define ptr @Cudd_bddAdjPermuteX(ptr noundef %0, ptr noundef %1, ptr noundef readonly captures(none) %2, i32 noundef %3) local_unnamed_addr #0 {
  %5 = getelementptr inbounds nuw i8, ptr %0, i64 136
  %6 = load i32, ptr %5, align 8, !tbaa !3
  %7 = sext i32 %6 to i64
  %8 = shl nsw i64 %7, 2
  %9 = tail call noalias ptr @malloc(i64 noundef %8) #8
  %10 = icmp eq ptr %9, null
  br i1 %10, label %12, label %.preheader30

.preheader30:                                     ; preds = %4
  %11 = icmp sgt i32 %6, 0
  br i1 %11, label %.lr.ph.preheader, label %.preheader

.lr.ph.preheader:                                 ; preds = %.preheader30
  %wide.trip.count = zext nneg i32 %6 to i64
  br label %.lr.ph

12:                                               ; preds = %4
  %13 = getelementptr inbounds nuw i8, ptr %0, i64 624
  store i32 1, ptr %13, align 8, !tbaa !38
  br label %31

.preheader:                                       ; preds = %.lr.ph, %.preheader30
  %14 = icmp sgt i32 %3, 2
  br i1 %14, label %.lr.ph33.preheader, label %._crit_edge

.lr.ph33.preheader:                               ; preds = %.preheader
  %15 = add nsw i32 %3, -2
  %16 = zext nneg i32 %15 to i64
  br label %.lr.ph33

.lr.ph:                                           ; preds = %.lr.ph.preheader, %.lr.ph
  %indvars.iv = phi i64 [ 0, %.lr.ph.preheader ], [ %indvars.iv.next, %.lr.ph ]
  %17 = getelementptr inbounds nuw i32, ptr %9, i64 %indvars.iv
  %18 = trunc nuw nsw i64 %indvars.iv to i32
  store i32 %18, ptr %17, align 4, !tbaa !31
  %indvars.iv.next = add nuw nsw i64 %indvars.iv, 1
  %exitcond.not = icmp eq i64 %indvars.iv.next, %wide.trip.count
  br i1 %exitcond.not, label %.preheader, label %.lr.ph, !llvm.loop !54

.lr.ph33:                                         ; preds = %.lr.ph33.preheader, %.lr.ph33
  %indvars.iv35 = phi i64 [ 0, %.lr.ph33.preheader ], [ %indvars.iv.next36, %.lr.ph33 ]
  %19 = getelementptr inbounds nuw ptr, ptr %2, i64 %indvars.iv35
  %20 = load ptr, ptr %19, align 8, !tbaa !25
  %21 = load i32, ptr %20, align 8, !tbaa !30
  %22 = getelementptr inbounds nuw i8, ptr %19, i64 8
  %23 = load ptr, ptr %22, align 8, !tbaa !25
  %24 = load i32, ptr %23, align 8, !tbaa !30
  %25 = sext i32 %21 to i64
  %26 = getelementptr inbounds i32, ptr %9, i64 %25
  store i32 %24, ptr %26, align 4, !tbaa !31
  %27 = sext i32 %24 to i64
  %28 = getelementptr inbounds i32, ptr %9, i64 %27
  store i32 %21, ptr %28, align 4, !tbaa !31
  %indvars.iv.next36 = add nuw nsw i64 %indvars.iv35, 3
  %29 = icmp samesign ult i64 %indvars.iv.next36, %16
  br i1 %29, label %.lr.ph33, label %._crit_edge, !llvm.loop !55

._crit_edge:                                      ; preds = %.lr.ph33, %.preheader
  %30 = tail call ptr @Cudd_bddPermute(ptr noundef %0, ptr noundef %1, ptr noundef nonnull %9)
  tail call void @free(ptr noundef nonnull %9) #7
  br label %31

31:                                               ; preds = %._crit_edge, %12
  %.0 = phi ptr [ null, %12 ], [ %30, %._crit_edge ]
  ret ptr %.0
}